target datalayout = "e-m:e-p270:32:32-p271:32:32-p272:64:64-i64:64-i128:128-f80:128-n8:16:32:64-S128"
target triple = "x86_64-pc-linux-gnu"

@_ZTIN19OpenColorIO_v2_5dev9ExceptionE = external constant ptr
@.str.61 = private unnamed_addr constant [14 x i8] c"ACES_RedMod03\00", align 1
@.str.62 = private unnamed_addr constant [14 x i8] c"ACES_RedMod10\00", align 1
@.str.63 = private unnamed_addr constant [12 x i8] c"ACES_Glow03\00", align 1
@.str.64 = private unnamed_addr constant [12 x i8] c"ACES_Glow10\00", align 1
@.str.65 = private unnamed_addr constant [17 x i8] c"ACES_DarkToDim10\00", align 1
@.str.66 = private unnamed_addr constant [17 x i8] c"ACES_GamutComp13\00", align 1
@.str.67 = private unnamed_addr constant [22 x i8] c"ACES2_OutputTransform\00", align 1
@.str.68 = private unnamed_addr constant [17 x i8] c"ACES2_RGB_TO_JMh\00", align 1
@.str.69 = private unnamed_addr constant [24 x i8] c"ACES2_TonescaleCompress\00", align 1
@.str.70 = private unnamed_addr constant [20 x i8] c"ACES2_GamutCompress\00", align 1
@.str.71 = private unnamed_addr constant [17 x i8] c"REC2100_Surround\00", align 1
@.str.72 = private unnamed_addr constant [11 x i8] c"RGB_TO_HSV\00", align 1
@.str.73 = private unnamed_addr constant [11 x i8] c"XYZ_TO_xyY\00", align 1
@.str.74 = private unnamed_addr constant [11 x i8] c"XYZ_TO_uvY\00", align 1
@.str.75 = private unnamed_addr constant [11 x i8] c"XYZ_TO_LUV\00", align 1
@.str.76 = private unnamed_addr constant [10 x i8] c"Lin_TO_PQ\00", align 1
@.str.77 = private unnamed_addr constant [16 x i8] c"Lin_TO_GammaLog\00", align 1
@.str.78 = private unnamed_addr constant [17 x i8] c"Lin_TO_DoubleLog\00", align 1
@.str.79 = private unnamed_addr constant [102 x i8] c"Unimplemented fixed function types: FIXED_FUNCTION_ACES_GAMUTMAP_02, FIXED_FUNCTION_ACES_GAMUTMAP_07.\00", align 1
@.str.80 = private unnamed_addr constant [31 x i8] c"Unknown Fixed FunctionOp style\00", align 1

; Function Attrs: mustprogress uwtable
define noundef ptr @_ZN19OpenColorIO_v2_5dev26FixedFunctionStyleToStringENS_18FixedFunctionStyleE(i32 noundef %0) #6 personality ptr @__gxx_personality_v0 {
  %2 = alloca ptr, align 8
  %3 = alloca i32, align 4
  %4 = alloca ptr, align 8
  %5 = alloca i32, align 4
  store i32 %0, ptr %3, align 4, !tbaa !69
  %6 = load i32, ptr %3, align 4, !tbaa !69
  switch i32 %6, label %32 [
    i32 0, label %7
    i32 1, label %8
    i32 2, label %9
    i32 3, label %10
    i32 4, label %11
    i32 12, label %12
    i32 16, label %13
    i32 17, label %14
    i32 18, label %15
    i32 19, label %16
    i32 5, label %17
    i32 6, label %18
    i32 7, label %19
    i32 8, label %20
    i32 9, label %21
    i32 13, label %22
    i32 14, label %23
    i32 15, label %24
    i32 10, label %25
    i32 11, label %25
  ]

7:                                                ; preds = %1
  store ptr @.str.61, ptr %2, align 8
  br label %39

8:                                                ; preds = %1
  store ptr @.str.62, ptr %2, align 8
  br label %39

9:                                                ; preds = %1
  store ptr @.str.63, ptr %2, align 8
  br label %39

10:                                               ; preds = %1
  store ptr @.str.64, ptr %2, align 8
  br label %39

11:                                               ; preds = %1
  store ptr @.str.65, ptr %2, align 8
  br label %39

12:                                               ; preds = %1
  store ptr @.str.66, ptr %2, align 8
  br label %39

13:                                               ; preds = %1
  store ptr @.str.67, ptr %2, align 8
  br label %39

14:                                               ; preds = %1
  store ptr @.str.68, ptr %2, align 8
  br label %39

15:                                               ; preds = %1
  store ptr @.str.69, ptr %2, align 8
  br label %39

16:                                               ; preds = %1
  store ptr @.str.70, ptr %2, align 8
  br label %39

17:                                               ; preds = %1
  store ptr @.str.71, ptr %2, align 8
  br label %39

18:                                               ; preds = %1
  store ptr @.str.72, ptr %2, align 8
  br label %39

19:                                               ; preds = %1
  store ptr @.str.73, ptr %2, align 8
  br label %39

20:                                               ; preds = %1
  store ptr @.str.74, ptr %2, align 8
  br label %39

21:                                               ; preds = %1
  store ptr @.str.75, ptr %2, align 8
  br label %39

22:                                               ; preds = %1
  store ptr @.str.76, ptr %2, align 8
  br label %39

23:                                               ; preds = %1
  store ptr @.str.77, ptr %2, align 8
  br label %39

24:                                               ; preds = %1
  store ptr @.str.78, ptr %2, align 8
  br label %39

25:                                               ; preds = %1, %1
  %26 = call ptr @__cxa_allocate_exception(i64 16) #3
  invoke void @_ZN19OpenColorIO_v2_5dev9ExceptionC1EPKc(ptr noundef nonnull align 8 dereferenceable(16) %26, ptr noundef @.str.79)
          to label %27 unwind label %28

27:                                               ; preds = %25
  call void @__cxa_throw(ptr %26, ptr @_ZTIN19OpenColorIO_v2_5dev9ExceptionE, ptr @_ZN19OpenColorIO_v2_5dev9ExceptionD1Ev) #18
  unreachable

28:                                               ; preds = %25
  %29 = landingpad { ptr, i32 }
          cleanup
  %30 = extractvalue { ptr, i32 } %29, 0
  store ptr %30, ptr %4, align 8
  %31 = extractvalue { ptr, i32 } %29, 1
  store i32 %31, ptr %5, align 4
  call void @__cxa_free_exception(ptr %26) #3
  br label %41

32:                                               ; preds = %1
  %33 = call ptr @__cxa_allocate_exception(i64 16) #3
  invoke void @_ZN19OpenColorIO_v2_5dev9ExceptionC1EPKc(ptr noundef nonnull align 8 dereferenceable(16) %33, ptr noundef @.str.80)
          to label %34 unwind label %35

34:                                               ; preds = %32
  call void @__cxa_throw(ptr %33, ptr @_ZTIN19OpenColorIO_v2_5dev9ExceptionE, ptr @_ZN19OpenColorIO_v2_5dev9ExceptionD1Ev) #18
  unreachable

35:                                               ; preds = %32
  %36 = landingpad { ptr, i32 }
          cleanup
  %37 = extractvalue { ptr, i32 } %36, 0
  store ptr %37, ptr %4, align 8
  %38 = extractvalue { ptr, i32 } %36, 1
  store i32 %38, ptr %5, align 4
  call void @__cxa_free_exception(ptr %33) #3
  br label %41

39:                                               ; preds = %24, %23, %22, %21, %20, %19, %18, %17, %16, %15, %14, %13, %12, %11, %10, %9, %8, %7
  %40 = load ptr, ptr %2, align 8
  ret ptr %40

41:                                               ; preds = %35, %28
  %42 = load ptr, ptr %4, align 8
  %43 = load i32, ptr %5, align 4
  %44 = insertvalue { ptr, i32 } poison, ptr %42, 0
  %45 = insertvalue { ptr, i32 } %44, i32 %43, 1
  resume { ptr, i32 } %45
}