; Function Attrs: mustprogress uwtable
define noundef nonnull ptr @_ZN19OpenColorIO_v2_5dev26FixedFunctionStyleToStringENS_18FixedFunctionStyleE(i32 noundef %0) local_unnamed_addr #5 personality ptr @__gxx_personality_v0 {
  switch i32 %0, label %24 [
    i32 0, label %29
    i32 1, label %2
    i32 2, label %3
    i32 3, label %4
    i32 4, label %5
    i32 12, label %6
    i32 16, label %7
    i32 17, label %8
    i32 18, label %9
    i32 19, label %10
    i32 5, label %11
    i32 6, label %12
    i32 7, label %13
    i32 8, label %14
    i32 9, label %15
    i32 13, label %16
    i32 14, label %17
    i32 15, label %18
    i32 10, label %19
    i32 11, label %19
  ]

2:                                                ; preds = %1
  br label %29

3:                                                ; preds = %1
  br label %29

4:                                                ; preds = %1
  br label %29

5:                                                ; preds = %1
  br label %29

6:                                                ; preds = %1
  br label %29

7:                                                ; preds = %1
  br label %29

8:                                                ; preds = %1
  br label %29

9:                                                ; preds = %1
  br label %29

10:                                               ; preds = %1
  br label %29

11:                                               ; preds = %1
  br label %29

12:                                               ; preds = %1
  br label %29

13:                                               ; preds = %1
  br label %29

14:                                               ; preds = %1
  br label %29

15:                                               ; preds = %1
  br label %29

16:                                               ; preds = %1
  br label %29

17:                                               ; preds = %1
  br label %29

18:                                               ; preds = %1
  br label %29

19:                                               ; preds = %1, %1
  %20 = tail call ptr @__cxa_allocate_exception(i64 16) #25
  invoke void @_ZN19OpenColorIO_v2_5dev9ExceptionC1EPKc(ptr noundef nonnull align 8 dereferenceable(16) %20, ptr noundef nonnull @.str.79)
          to label %21 unwind label %22

21:                                               ; preds = %19
  tail call void @__cxa_throw(ptr nonnull %20, ptr nonnull @_ZTIN19OpenColorIO_v2_5dev9ExceptionE, ptr nonnull @_ZN19OpenColorIO_v2_5dev9ExceptionD1Ev) #27
  unreachable

22:                                               ; preds = %19
  %23 = landingpad { ptr, i32 }
          cleanup
  br label %30

24:                                               ; preds = %1
  %25 = tail call ptr @__cxa_allocate_exception(i64 16) #25
  invoke void @_ZN19OpenColorIO_v2_5dev9ExceptionC1EPKc(ptr noundef nonnull align 8 dereferenceable(16) %25, ptr noundef nonnull @.str.80)
          to label %26 unwind label %27

26:                                               ; preds = %24
  tail call void @__cxa_throw(ptr nonnull %25, ptr nonnull @_ZTIN19OpenColorIO_v2_5dev9ExceptionE, ptr nonnull @_ZN19OpenColorIO_v2_5dev9ExceptionD1Ev) #27
  unreachable

27:                                               ; preds = %24
  %28 = landingpad { ptr, i32 }
          cleanup
  br label %30

29:                                               ; preds = %1, %18, %17, %16, %15, %14, %13, %12, %11, %10, %9, %8, %7, %6, %5, %4, %3, %2
  %.04 = phi ptr [ @.str.78, %18 ], [ @.str.77, %17 ], [ @.str.76, %16 ], [ @.str.75, %15 ], [ @.str.74, %14 ], [ @.str.73, %13 ], [ @.str.72, %12 ], [ @.str.71, %11 ], [ @.str.70, %10 ], [ @.str.69, %9 ], [ @.str.68, %8 ], [ @.str.67, %7 ], [ @.str.66, %6 ], [ @.str.65, %5 ], [ @.str.64, %4 ], [ @.str.63, %3 ], [ @.str.62, %2 ], [ @.str.61, %1 ]
  ret ptr %.04

30:                                               ; preds = %27, %22
  %.sink = phi ptr [ %25, %27 ], [ %20, %22 ]
  %.pn = phi { ptr, i32 } [ %28, %27 ], [ %23, %22 ]
  tail call void @__cxa_free_exception(ptr nonnull %.sink) #25
  resume { ptr, i32 } %.pn
}